target datalayout = "e-m:e-p270:32:32-p271:32:32-p272:64:64-i64:64-i128:128-f80:128-n8:16:32:64-S128"
target triple = "x86_64-pc-linux-gnu"

%struct.Jf_Par_t_ = type { i32, i32, i32, i32, i32, i32, i32, i32, i32, i32, i32, i32, i32, i32, i32, i32, i32, i32, i32, i32, i32, i32, i32, i32, i32, i32, i32, i32, i32, i32, i32, i32, i32, i32, i32, i32, i32, i32, i32, i32, i64, i64, i64, i64, i64, i64, i64, i64, i32, float, float, float, float, ptr, ptr }

; Function Attrs: nounwind uwtable
define void @Pf_ManSetDefaultPars(ptr noundef %0) #0 {
  %2 = alloca ptr, align 8
  store ptr %0, ptr %2, align 8, !tbaa !79
  %3 = load ptr, ptr %2, align 8, !tbaa !79
  call void @llvm.memset.p0.i64(ptr align 8 %3, i8 0, i64 264, i1 false)
  %4 = load ptr, ptr %2, align 8, !tbaa !79
  %5 = getelementptr inbounds nuw %struct.Jf_Par_t_, ptr %4, i32 0, i32 0
  store i32 6, ptr %5, align 8, !tbaa !122
  %6 = load ptr, ptr %2, align 8, !tbaa !79
  %7 = getelementptr inbounds nuw %struct.Jf_Par_t_, ptr %6, i32 0, i32 1
  store i32 16, ptr %7, align 4, !tbaa !124
  %8 = load ptr, ptr %2, align 8, !tbaa !79
  %9 = getelementptr inbounds nuw %struct.Jf_Par_t_, ptr %8, i32 0, i32 2
  store i32 0, ptr %9, align 8, !tbaa !176
  %10 = load ptr, ptr %2, align 8, !tbaa !79
  %11 = getelementptr inbounds nuw %struct.Jf_Par_t_, ptr %10, i32 0, i32 3
  store i32 3, ptr %11, align 4, !tbaa !167
  %12 = load ptr, ptr %2, align 8, !tbaa !79
  %13 = getelementptr inbounds nuw %struct.Jf_Par_t_, ptr %12, i32 0, i32 4
  store i32 0, ptr %13, align 8, !tbaa !168
  %14 = load ptr, ptr %2, align 8, !tbaa !79
  %15 = getelementptr inbounds nuw %struct.Jf_Par_t_, ptr %14, i32 0, i32 5
  store i32 0, ptr %15, align 4, !tbaa !177
  %16 = load ptr, ptr %2, align 8, !tbaa !79
  %17 = getelementptr inbounds nuw %struct.Jf_Par_t_, ptr %16, i32 0, i32 6
  store i32 3, ptr %17, align 8, !tbaa !178
  %18 = load ptr, ptr %2, align 8, !tbaa !79
  %19 = getelementptr inbounds nuw %struct.Jf_Par_t_, ptr %18, i32 0, i32 7
  store i32 1, ptr %19, align 4, !tbaa !179
  %20 = load ptr, ptr %2, align 8, !tbaa !79
  %21 = getelementptr inbounds nuw %struct.Jf_Par_t_, ptr %20, i32 0, i32 9
  store i32 5, ptr %21, align 4, !tbaa !180
  %22 = load ptr, ptr %2, align 8, !tbaa !79
  %23 = getelementptr inbounds nuw %struct.Jf_Par_t_, ptr %22, i32 0, i32 13
  store i32 -1, ptr %23, align 4, !tbaa !181
  %24 = load ptr, ptr %2, align 8, !tbaa !79
  %25 = getelementptr inbounds nuw %struct.Jf_Par_t_, ptr %24, i32 0, i32 14
  store i32 0, ptr %25, align 8, !tbaa !182
  %26 = load ptr, ptr %2, align 8, !tbaa !79
  %27 = getelementptr inbounds nuw %struct.Jf_Par_t_, ptr %26, i32 0, i32 18
  store i32 1, ptr %27, align 8, !tbaa !183
  %28 = load ptr, ptr %2, align 8, !tbaa !79
  %29 = getelementptr inbounds nuw %struct.Jf_Par_t_, ptr %28, i32 0, i32 21
  store i32 0, ptr %29, align 4, !tbaa !169
  %30 = load ptr, ptr %2, align 8, !tbaa !79
  %31 = getelementptr inbounds nuw %struct.Jf_Par_t_, ptr %30, i32 0, i32 22
  store i32 1, ptr %31, align 8, !tbaa !184
  %32 = load ptr, ptr %2, align 8, !tbaa !79
  %33 = getelementptr inbounds nuw %struct.Jf_Par_t_, ptr %32, i32 0, i32 24
  store i32 0, ptr %33, align 8, !tbaa !185
  %34 = load ptr, ptr %2, align 8, !tbaa !79
  %35 = getelementptr inbounds nuw %struct.Jf_Par_t_, ptr %34, i32 0, i32 29
  store i32 0, ptr %35, align 4, !tbaa !186
  %36 = load ptr, ptr %2, align 8, !tbaa !79
  %37 = getelementptr inbounds nuw %struct.Jf_Par_t_, ptr %36, i32 0, i32 34
  store i32 0, ptr %37, align 8, !tbaa !159
  %38 = load ptr, ptr %2, align 8, !tbaa !79
  %39 = getelementptr inbounds nuw %struct.Jf_Par_t_, ptr %38, i32 0, i32 35
  store i32 0, ptr %39, align 4, !tbaa !187
  %40 = load ptr, ptr %2, align 8, !tbaa !79
  %41 = getelementptr inbounds nuw %struct.Jf_Par_t_, ptr %40, i32 0, i32 36
  store i32 6, ptr %41, align 8, !tbaa !188
  %42 = load ptr, ptr %2, align 8, !tbaa !79
  %43 = getelementptr inbounds nuw %struct.Jf_Par_t_, ptr %42, i32 0, i32 37
  store i32 32, ptr %43, align 4, !tbaa !189
  %44 = load ptr, ptr %2, align 8, !tbaa !79
  %45 = getelementptr inbounds nuw %struct.Jf_Par_t_, ptr %44, i32 0, i32 51
  store float -1.000000e+00, ptr %45, align 4, !tbaa !190
  %46 = load ptr, ptr %2, align 8, !tbaa !79
  %47 = getelementptr inbounds nuw %struct.Jf_Par_t_, ptr %46, i32 0, i32 52
  store float 0x3F847AE140000000, ptr %47, align 8, !tbaa !191
  ret void
}