; Function Attrs: mustprogress nofree norecurse nosync nounwind willreturn memory(argmem: write) uwtable
define void @Pf_ManSetDefaultPars(ptr noundef writeonly captures(none) initializes((0, 264)) %0) local_unnamed_addr #10 {
  %2 = getelementptr inbounds nuw i8, ptr %0, i64 32
  tail call void @llvm.memset.p0.i64(ptr noundef nonnull align 8 dereferenceable(264) %2, i8 0, i64 232, i1 false)
  store i32 6, ptr %0, align 8, !tbaa !118
  %3 = getelementptr inbounds nuw i8, ptr %0, i64 4
  store i32 16, ptr %3, align 4, !tbaa !120
  %4 = getelementptr inbounds nuw i8, ptr %0, i64 8
  store i32 0, ptr %4, align 8, !tbaa !175
  %5 = getelementptr inbounds nuw i8, ptr %0, i64 12
  store i32 3, ptr %5, align 4, !tbaa !168
  %6 = getelementptr inbounds nuw i8, ptr %0, i64 16
  store i32 0, ptr %6, align 8, !tbaa !169
  %7 = getelementptr inbounds nuw i8, ptr %0, i64 20
  store i32 0, ptr %7, align 4, !tbaa !176
  %8 = getelementptr inbounds nuw i8, ptr %0, i64 24
  store i32 3, ptr %8, align 8, !tbaa !177
  %9 = getelementptr inbounds nuw i8, ptr %0, i64 28
  store i32 1, ptr %9, align 4, !tbaa !133
  %10 = getelementptr inbounds nuw i8, ptr %0, i64 36
  store i32 5, ptr %10, align 4, !tbaa !178
  %11 = getelementptr inbounds nuw i8, ptr %0, i64 52
  store i32 -1, ptr %11, align 4, !tbaa !179
  %12 = getelementptr inbounds nuw i8, ptr %0, i64 72
  store i32 1, ptr %12, align 8, !tbaa !180
  %13 = getelementptr inbounds nuw i8, ptr %0, i64 88
  store i32 1, ptr %13, align 8, !tbaa !181
  %14 = getelementptr inbounds nuw i8, ptr %0, i64 116
  store i32 0, ptr %14, align 4, !tbaa !182
  %15 = getelementptr inbounds nuw i8, ptr %0, i64 140
  store i32 0, ptr %15, align 4, !tbaa !183
  %16 = getelementptr inbounds nuw i8, ptr %0, i64 144
  store i32 6, ptr %16, align 8, !tbaa !184
  %17 = getelementptr inbounds nuw i8, ptr %0, i64 148
  store i32 32, ptr %17, align 4, !tbaa !185
  %18 = getelementptr inbounds nuw i8, ptr %0, i64 236
  store float -1.000000e+00, ptr %18, align 4, !tbaa !186
  %19 = getelementptr inbounds nuw i8, ptr %0, i64 240
  store float 0x3F847AE140000000, ptr %19, align 8, !tbaa !187
  ret void
}